; Function Attrs: mustprogress uwtable
define hidden void @_ZN2cv15batchDistL2Sqr_IffEEvPKT_S3_miiPT0_PKh(ptr noundef %0, ptr noundef %1, i64 noundef %2, i32 noundef %3, i32 noundef %4, ptr nocapture noundef writeonly %5, ptr noundef readonly %6) local_unnamed_addr #0 {
  %8 = lshr i64 %2, 2
  %.not = icmp eq ptr %6, null
  %9 = icmp sgt i32 %3, 0
  br i1 %.not, label %.preheader, label %.preheader27

.preheader27:                                     ; preds = %7
  br i1 %9, label %.lr.ph.preheader, label %.loopexit

.lr.ph.preheader:                                 ; preds = %.preheader27
  %wide.trip.count = zext nneg i32 %3 to i64
  br label %.lr.ph

.preheader:                                       ; preds = %7
  br i1 %9, label %.lr.ph31.preheader, label %.loopexit

.lr.ph31.preheader:                               ; preds = %.preheader
  %wide.trip.count37 = zext nneg i32 %3 to i64
  br label %.lr.ph31

.lr.ph31:                                         ; preds = %.lr.ph31.preheader, %.lr.ph31
  %indvars.iv34 = phi i64 [ 0, %.lr.ph31.preheader ], [ %indvars.iv.next35, %.lr.ph31 ]
  %10 = mul i64 %8, %indvars.iv34
  %11 = getelementptr inbounds float, ptr %1, i64 %10
  %12 = tail call noundef float @_ZN2cv3hal10normL2Sqr_EPKfS2_i(ptr noundef %0, ptr noundef %11, i32 noundef %4)
  %13 = getelementptr inbounds float, ptr %5, i64 %indvars.iv34
  store float %12, ptr %13, align 4
  %indvars.iv.next35 = add nuw nsw i64 %indvars.iv34, 1
  %exitcond38.not = icmp eq i64 %indvars.iv.next35, %wide.trip.count37
  br i1 %exitcond38.not, label %.loopexit, label %.lr.ph31, !llvm.loop !4

.lr.ph:                                           ; preds = %.lr.ph.preheader, %20
  %indvars.iv = phi i64 [ 0, %.lr.ph.preheader ], [ %indvars.iv.next, %20 ]
  %14 = getelementptr inbounds i8, ptr %6, i64 %indvars.iv
  %15 = load i8, ptr %14, align 1
  %.not26 = icmp eq i8 %15, 0
  br i1 %.not26, label %20, label %16

16:                                               ; preds = %.lr.ph
  %17 = mul i64 %8, %indvars.iv
  %18 = getelementptr inbounds float, ptr %1, i64 %17
  %19 = tail call noundef float @_ZN2cv3hal10normL2Sqr_EPKfS2_i(ptr noundef %0, ptr noundef %18, i32 noundef %4)
  br label %20

20:                                               ; preds = %.lr.ph, %16
  %21 = phi float [ %19, %16 ], [ 0x47EFFFFFE0000000, %.lr.ph ]
  %22 = getelementptr inbounds float, ptr %5, i64 %indvars.iv
  store float %21, ptr %22, align 4
  %indvars.iv.next = add nuw nsw i64 %indvars.iv, 1
  %exitcond.not = icmp eq i64 %indvars.iv.next, %wide.trip.count
  br i1 %exitcond.not, label %.loopexit, label %.lr.ph, !llvm.loop !6

.loopexit:                                        ; preds = %20, %.lr.ph31, %.preheader27, %.preheader
  ret void
}